; Function Attrs: nounwind uwtable
define dso_local ptr @gistFormTuple(ptr noundef %0, ptr noundef %1, ptr noundef readonly captures(none) %2, ptr noundef %3, i1 noundef zeroext %4) local_unnamed_addr #0 {
  %6 = alloca %struct.GISTENTRY, align 8
  %7 = alloca [32 x i64], align 16
  call void @llvm.lifetime.start.p0(i64 256, ptr nonnull %7) #11
  %8 = zext i1 %4 to i8
  %9 = getelementptr inbounds nuw i8, ptr %1, i64 328
  %10 = load ptr, ptr %9, align 8
  %11 = getelementptr inbounds nuw i8, ptr %10, i64 10
  %12 = load i16, ptr %11, align 2
  %13 = icmp sgt i16 %12, 0
  br i1 %13, label %.lr.ph.i, label %._crit_edge.i

.lr.ph.i:                                         ; preds = %5
  %14 = getelementptr inbounds nuw i8, ptr %6, i64 8
  %15 = getelementptr inbounds nuw i8, ptr %6, i64 16
  %16 = getelementptr inbounds nuw i8, ptr %6, i64 24
  %17 = getelementptr inbounds nuw i8, ptr %6, i64 26
  %18 = getelementptr inbounds nuw i8, ptr %0, i64 3112
  %19 = getelementptr inbounds nuw i8, ptr %0, i64 13864
  %20 = ptrtoint ptr %6 to i64
  br label %21

21:                                               ; preds = %42, %.lr.ph.i
  %.pre10 = phi ptr [ %10, %.lr.ph.i ], [ %.pre11, %42 ]
  %22 = phi ptr [ %10, %.lr.ph.i ], [ %43, %42 ]
  %indvars.iv.i = phi i64 [ 0, %.lr.ph.i ], [ %indvars.iv.next.i, %42 ]
  %23 = getelementptr inbounds nuw i8, ptr %3, i64 %indvars.iv.i
  %24 = load i8, ptr %23, align 1, !range !12, !noundef !13
  %25 = trunc nuw i8 %24 to i1
  br i1 %25, label %26, label %28

26:                                               ; preds = %21
  %27 = getelementptr inbounds nuw i64, ptr %7, i64 %indvars.iv.i
  store i64 0, ptr %27, align 8
  br label %42

28:                                               ; preds = %21
  call void @llvm.lifetime.start.p0(i64 32, ptr nonnull %6) #11
  %29 = getelementptr inbounds nuw i64, ptr %2, i64 %indvars.iv.i
  %30 = load i64, ptr %29, align 8
  store i64 %30, ptr %6, align 8
  store ptr %1, ptr %14, align 8
  store ptr null, ptr %15, align 8
  store i16 0, ptr %16, align 8
  store i8 %8, ptr %17, align 2
  %31 = getelementptr inbounds nuw [32 x %struct.FmgrInfo], ptr %18, i64 0, i64 %indvars.iv.i
  %32 = getelementptr inbounds nuw i8, ptr %31, i64 8
  %33 = load i32, ptr %32, align 8
  %.not.i = icmp eq i32 %33, 0
  br i1 %.not.i, label %39, label %34

34:                                               ; preds = %28
  %35 = getelementptr inbounds nuw [32 x i32], ptr %19, i64 0, i64 %indvars.iv.i
  %36 = load i32, ptr %35, align 4
  %37 = call i64 @FunctionCall1Coll(ptr noundef nonnull %31, i32 noundef %36, i64 noundef %20) #11
  %38 = inttoptr i64 %37 to ptr
  %.pre.i = load i64, ptr %38, align 8
  %.pre.pre = load ptr, ptr %9, align 8
  br label %39

39:                                               ; preds = %34, %28
  %.pre = phi ptr [ %.pre.pre, %34 ], [ %.pre10, %28 ]
  %40 = phi i64 [ %.pre.i, %34 ], [ %30, %28 ]
  %41 = getelementptr inbounds nuw i64, ptr %7, i64 %indvars.iv.i
  store i64 %40, ptr %41, align 8
  call void @llvm.lifetime.end.p0(i64 32, ptr nonnull %6) #11
  br label %42

42:                                               ; preds = %39, %26
  %.pre11 = phi ptr [ %.pre, %39 ], [ %.pre10, %26 ]
  %43 = phi ptr [ %.pre, %39 ], [ %22, %26 ]
  %indvars.iv.next.i = add nuw nsw i64 %indvars.iv.i, 1
  %44 = getelementptr inbounds nuw i8, ptr %43, i64 10
  %45 = load i16, ptr %44, align 2
  %46 = sext i16 %45 to i64
  %47 = icmp slt i64 %indvars.iv.next.i, %46
  br i1 %47, label %21, label %._crit_edge.loopexit.i, !llvm.loop !15

._crit_edge.loopexit.i:                           ; preds = %42
  %48 = trunc nuw nsw i64 %indvars.iv.next.i to i32
  br label %._crit_edge.i

._crit_edge.i:                                    ; preds = %._crit_edge.loopexit.i, %5
  %.031.lcssa.i = phi i32 [ 0, %5 ], [ %48, %._crit_edge.loopexit.i ]
  br i1 %4, label %.preheader.i, label %gistCompressValues.exit

.preheader.i:                                     ; preds = %._crit_edge.i
  %49 = getelementptr inbounds nuw i8, ptr %1, i64 64
  %50 = load ptr, ptr %49, align 8
  %51 = load i32, ptr %50, align 8
  %52 = icmp slt i32 %.031.lcssa.i, %51
  br i1 %52, label %.lr.ph34.preheader.i, label %gistCompressValues.exit

.lr.ph34.preheader.i:                             ; preds = %.preheader.i
  %53 = zext nneg i32 %.031.lcssa.i to i64
  %54 = sext i32 %51 to i64
  br label %.lr.ph34.i

.lr.ph34.i:                                       ; preds = %61, %.lr.ph34.preheader.i
  %indvars.iv36.i = phi i64 [ %53, %.lr.ph34.preheader.i ], [ %indvars.iv.next37.i, %61 ]
  %55 = getelementptr inbounds nuw i8, ptr %3, i64 %indvars.iv36.i
  %56 = load i8, ptr %55, align 1, !range !12, !noundef !13
  %57 = trunc nuw i8 %56 to i1
  br i1 %57, label %61, label %58

58:                                               ; preds = %.lr.ph34.i
  %59 = getelementptr inbounds nuw i64, ptr %2, i64 %indvars.iv36.i
  %60 = load i64, ptr %59, align 8
  br label %61

61:                                               ; preds = %58, %.lr.ph34.i
  %.sink.i = phi i64 [ %60, %58 ], [ 0, %.lr.ph34.i ]
  %62 = getelementptr inbounds nuw i64, ptr %7, i64 %indvars.iv36.i
  store i64 %.sink.i, ptr %62, align 8
  %indvars.iv.next37.i = add nuw nsw i64 %indvars.iv36.i, 1
  %63 = icmp slt i64 %indvars.iv.next37.i, %54
  br i1 %63, label %.lr.ph34.i, label %gistCompressValues.exit, !llvm.loop !16

gistCompressValues.exit:                          ; preds = %61, %._crit_edge.i, %.preheader.i
  %.in.v = phi i64 [ 24, %._crit_edge.i ], [ 16, %.preheader.i ], [ 16, %61 ]
  %.in = getelementptr inbounds nuw i8, ptr %0, i64 %.in.v
  %64 = load ptr, ptr %.in, align 8
  %65 = call ptr @index_form_tuple(ptr noundef %64, ptr noundef nonnull %7, ptr noundef %3) #11
  %66 = getelementptr inbounds nuw i8, ptr %65, i64 4
  store i16 -1, ptr %66, align 2
  call void @llvm.lifetime.end.p0(i64 256, ptr nonnull %7) #11
  ret ptr %65
}